target datalayout = "e-m:e-p270:32:32-p271:32:32-p272:64:64-i64:64-i128:128-f80:128-n8:16:32:64-S128"
target triple = "x86_64-pc-linux-gnu"

; Function Attrs: nounwind uwtable
define dso_local void @quoteAclUserName(ptr noundef %0, ptr noundef %1) #0 {
  %3 = alloca ptr, align 8
  %4 = alloca ptr, align 8
  %5 = alloca ptr, align 8
  %6 = alloca i8, align 1
  store ptr %0, ptr %3, align 8
  store ptr %1, ptr %4, align 8
  call void @llvm.lifetime.start.p0(i64 8, ptr %5) #8
  call void @llvm.lifetime.start.p0(i64 1, ptr %6) #8
  store i8 1, ptr %6, align 1
  %7 = load ptr, ptr %4, align 8
  store ptr %7, ptr %5, align 8
  br label %8

8:                                                ; preds = %31, %2
  %9 = load ptr, ptr %5, align 8
  %10 = load i8, ptr %9, align 1
  %11 = icmp ne i8 %10, 0
  br i1 %11, label %12, label %34

12:                                               ; preds = %8
  %13 = call ptr @__ctype_b_loc() #11
  %14 = load ptr, ptr %13, align 8
  %15 = load ptr, ptr %5, align 8
  %16 = load i8, ptr %15, align 1
  %17 = zext i8 %16 to i32
  %18 = sext i32 %17 to i64
  %19 = getelementptr inbounds i16, ptr %14, i64 %18
  %20 = load i16, ptr %19, align 2
  %21 = zext i16 %20 to i32
  %22 = and i32 %21, 8
  %23 = icmp ne i32 %22, 0
  br i1 %23, label %30, label %24

24:                                               ; preds = %12
  %25 = load ptr, ptr %5, align 8
  %26 = load i8, ptr %25, align 1
  %27 = sext i8 %26 to i32
  %28 = icmp ne i32 %27, 95
  br i1 %28, label %29, label %30

29:                                               ; preds = %24
  store i8 0, ptr %6, align 1
  br label %34

30:                                               ; preds = %24, %12
  br label %31

31:                                               ; preds = %30
  %32 = load ptr, ptr %5, align 8
  %33 = getelementptr inbounds nuw i8, ptr %32, i32 1
  store ptr %33, ptr %5, align 8
  br label %8, !llvm.loop !13

34:                                               ; preds = %29, %8
  %35 = load i8, ptr %6, align 1, !range !6, !noundef !7
  %36 = trunc i8 %35 to i1
  br i1 %36, label %39, label %37

37:                                               ; preds = %34
  %38 = load ptr, ptr %3, align 8
  call void @appendPQExpBufferChar(ptr noundef %38, i8 noundef signext 34)
  br label %39

39:                                               ; preds = %37, %34
  %40 = load ptr, ptr %4, align 8
  store ptr %40, ptr %5, align 8
  br label %41

41:                                               ; preds = %56, %39
  %42 = load ptr, ptr %5, align 8
  %43 = load i8, ptr %42, align 1
  %44 = icmp ne i8 %43, 0
  br i1 %44, label %45, label %59

45:                                               ; preds = %41
  %46 = load ptr, ptr %5, align 8
  %47 = load i8, ptr %46, align 1
  %48 = sext i8 %47 to i32
  %49 = icmp eq i32 %48, 34
  br i1 %49, label %50, label %52

50:                                               ; preds = %45
  %51 = load ptr, ptr %3, align 8
  call void @appendPQExpBufferChar(ptr noundef %51, i8 noundef signext 34)
  br label %52

52:                                               ; preds = %50, %45
  %53 = load ptr, ptr %3, align 8
  %54 = load ptr, ptr %5, align 8
  %55 = load i8, ptr %54, align 1
  call void @appendPQExpBufferChar(ptr noundef %53, i8 noundef signext %55)
  br label %56

56:                                               ; preds = %52
  %57 = load ptr, ptr %5, align 8
  %58 = getelementptr inbounds nuw i8, ptr %57, i32 1
  store ptr %58, ptr %5, align 8
  br label %41, !llvm.loop !14

59:                                               ; preds = %41
  %60 = load i8, ptr %6, align 1, !range !6, !noundef !7
  %61 = trunc i8 %60 to i1
  br i1 %61, label %64, label %62

62:                                               ; preds = %59
  %63 = load ptr, ptr %3, align 8
  call void @appendPQExpBufferChar(ptr noundef %63, i8 noundef signext 34)
  br label %64

64:                                               ; preds = %62, %59
  call void @llvm.lifetime.end.p0(i64 1, ptr %6) #8
  call void @llvm.lifetime.end.p0(i64 8, ptr %5) #8
  ret void
}