; Function Attrs: nounwind uwtable
define dso_local void @quoteAclUserName(ptr noundef %0, ptr noundef readonly captures(none) %1) local_unnamed_addr #0 {
  %3 = load i8, ptr %1, align 1
  %.not23 = icmp eq i8 %3, 0
  br i1 %.not23, label %.critedge, label %.lr.ph

.lr.ph:                                           ; preds = %2
  %4 = tail call ptr @__ctype_b_loc() #11
  %5 = load ptr, ptr %4, align 8
  br label %9

6:                                                ; preds = %9
  %7 = getelementptr inbounds nuw i8, ptr %.01524, i64 1
  %8 = load i8, ptr %7, align 1
  %.not = icmp eq i8 %8, 0
  br i1 %.not, label %.critedge, label %9, !llvm.loop !13

9:                                                ; preds = %.lr.ph, %6
  %10 = phi i8 [ %3, %.lr.ph ], [ %8, %6 ]
  %.01524 = phi ptr [ %1, %.lr.ph ], [ %7, %6 ]
  %11 = zext i8 %10 to i64
  %12 = getelementptr inbounds nuw i16, ptr %5, i64 %11
  %13 = load i16, ptr %12, align 2
  %14 = and i16 %13, 8
  %.not18 = icmp ne i16 %14, 0
  %.not19 = icmp eq i8 %10, 95
  %or.cond = or i1 %.not19, %.not18
  br i1 %or.cond, label %6, label %15

15:                                               ; preds = %9
  tail call void @appendPQExpBufferChar(ptr noundef %0, i8 noundef signext 34) #8
  br label %.critedge

.critedge:                                        ; preds = %6, %2, %15
  %.not22 = phi i1 [ false, %15 ], [ true, %2 ], [ true, %6 ]
  br label %16

16:                                               ; preds = %19, %.critedge
  %.1 = phi ptr [ %1, %.critedge ], [ %21, %19 ]
  %17 = load i8, ptr %.1, align 1
  switch i8 %17, label %19 [
    i8 0, label %22
    i8 34, label %18
  ]

18:                                               ; preds = %16
  tail call void @appendPQExpBufferChar(ptr noundef %0, i8 noundef signext 34) #8
  %.pre = load i8, ptr %.1, align 1
  br label %19

19:                                               ; preds = %16, %18
  %20 = phi i8 [ %17, %16 ], [ %.pre, %18 ]
  tail call void @appendPQExpBufferChar(ptr noundef %0, i8 noundef signext %20) #8
  %21 = getelementptr inbounds nuw i8, ptr %.1, i64 1
  br label %16, !llvm.loop !14

22:                                               ; preds = %16
  br i1 %.not22, label %24, label %23

23:                                               ; preds = %22
  tail call void @appendPQExpBufferChar(ptr noundef %0, i8 noundef signext 34) #8
  br label %24

24:                                               ; preds = %23, %22
  ret void
}